target datalayout = "e-m:e-p270:32:32-p271:32:32-p272:64:64-i64:64-i128:128-f80:128-n8:16:32:64-S128"
target triple = "x86_64-pc-linux-gnu"

@.str.226 = private unnamed_addr constant [13 x i8] c"%.1f %c (%u)\00", align 1

; Function Attrs: null_pointer_is_valid sspstrong uwtable
define internal void @seg3a_longitude_fmt(ptr noundef %0, i32 noundef %1) #0 {
  %3 = alloca ptr, align 8
  %4 = alloca i32, align 4
  %5 = alloca i32, align 4
  %6 = alloca i8, align 1
  store ptr %0, ptr %3, align 8
  store i32 %1, ptr %4, align 4
  call void @llvm.lifetime.start.p0(i64 4, ptr %5) #5
  call void @llvm.lifetime.start.p0(i64 1, ptr %6) #5
  %7 = load i32, ptr %4, align 4
  %8 = icmp ult i32 %7, 1800
  br i1 %8, label %9, label %11

9:                                                ; preds = %2
  store i8 87, ptr %6, align 1
  %10 = load i32, ptr %4, align 4
  store i32 %10, ptr %5, align 4
  br label %14

11:                                               ; preds = %2
  store i8 69, ptr %6, align 1
  %12 = load i32, ptr %4, align 4
  %13 = sub i32 3600, %12
  store i32 %13, ptr %5, align 4
  br label %14

14:                                               ; preds = %11, %9
  %15 = load ptr, ptr %3, align 8
  %16 = load ptr, ptr %3, align 8
  %17 = call i64 @llvm.objectsize.i64.p0(ptr %16, i1 false, i1 true, i1 true)
  %18 = load i32, ptr %5, align 4
  %19 = sitofp i32 %18 to float
  %20 = fdiv float %19, 1.000000e+01
  %21 = fpext float %20 to double
  %22 = load i8, ptr %6, align 1
  %23 = sext i8 %22 to i32
  %24 = load i32, ptr %4, align 4
  %25 = call i32 (ptr, i64, i32, i64, ptr, ...) @__snprintf_chk(ptr noundef %15, i64 noundef 240, i32 noundef 2, i64 noundef %17, ptr noundef @.str.226, double noundef %21, i32 noundef %23, i32 noundef %24)
  call void @llvm.lifetime.end.p0(i64 1, ptr %6) #5
  call void @llvm.lifetime.end.p0(i64 4, ptr %5) #5
  ret void
}