; Function Attrs: nofree null_pointer_is_valid sspstrong uwtable
define internal void @seg3a_longitude_fmt(ptr noundef %0, i32 noundef %1) #1 {
  %3 = icmp ult i32 %1, 1800
  %4 = sub i32 3600, %1
  %.07 = select i1 %3, i32 %1, i32 %4
  %.0 = select i1 %3, i32 87, i32 69
  %5 = sitofp i32 %.07 to float
  %6 = fdiv float %5, 1.000000e+01
  %7 = fpext float %6 to double
  %8 = tail call i32 (ptr, i64, i32, i64, ptr, ...) @__snprintf_chk(ptr noundef %0, i64 noundef 240, i32 noundef 2, i64 noundef -1, ptr noundef nonnull @.str.226, double noundef %7, i32 noundef %.0, i32 noundef %1)
  ret void
}